target datalayout = "e-m:e-p270:32:32-p271:32:32-p272:64:64-i64:64-i128:128-f80:128-n8:16:32:64-S128"
target triple = "x86_64-pc-linux-gnu"

%struct.strbuf = type { i64, i64, ptr }
%struct.date_mode = type { i32, i32, ptr }

@.str.72 = private unnamed_addr constant [1 x i8] zeroinitializer, align 1
@strbuf_slopbuf = external global [0 x i8], align 1
@.str.122 = private unnamed_addr constant [11 x i8] c"./strbuf.h\00", align 1
@.str.123 = private unnamed_addr constant [30 x i8] c"strbuf_setlen() beyond buffer\00", align 1
@git_gettext_enabled = external global i32, align 4
@.str.172 = private unnamed_addr constant [5 x i8] c"\0A%s\0A\00", align 1
@__const.hg_patch_to_mail.sb = private unnamed_addr constant %struct.strbuf { i64 0, i64 0, ptr @strbuf_slopbuf }, align 8
@.str.174 = private unnamed_addr constant [8 x i8] c"# User \00", align 1
@.str.175 = private unnamed_addr constant [10 x i8] c"From: %s\0A\00", align 1
@.str.176 = private unnamed_addr constant [8 x i8] c"# Date \00", align 1
@.str.177 = private unnamed_addr constant [18 x i8] c"invalid timestamp\00", align 1
@.str.178 = private unnamed_addr constant [2 x i8] c" \00", align 1
@.str.179 = private unnamed_addr constant [18 x i8] c"invalid Date line\00", align 1
@.str.180 = private unnamed_addr constant [24 x i8] c"invalid timezone offset\00", align 1
@.str.181 = private unnamed_addr constant [10 x i8] c"Date: %s\0A\00", align 1
@.str.182 = private unnamed_addr constant [3 x i8] c"# \00", align 1

; Function Attrs: inlinehint nounwind uwtable
define internal void @strbuf_setlen(ptr noundef %0, i64 noundef %1) #5 {
  %3 = alloca ptr, align 8
  %4 = alloca i64, align 8
  store ptr %0, ptr %3, align 8, !tbaa !98
  store i64 %1, ptr %4, align 8, !tbaa !103
  %5 = load i64, ptr %4, align 8, !tbaa !103
  %6 = load ptr, ptr %3, align 8, !tbaa !98
  %7 = getelementptr inbounds nuw %struct.strbuf, ptr %6, i32 0, i32 0
  %8 = load i64, ptr %7, align 8, !tbaa !104
  %9 = icmp ne i64 %8, 0
  br i1 %9, label %10, label %15

10:                                               ; preds = %2
  %11 = load ptr, ptr %3, align 8, !tbaa !98
  %12 = getelementptr inbounds nuw %struct.strbuf, ptr %11, i32 0, i32 0
  %13 = load i64, ptr %12, align 8, !tbaa !104
  %14 = sub i64 %13, 1
  br label %16

15:                                               ; preds = %2
  br label %16

16:                                               ; preds = %15, %10
  %17 = phi i64 [ %14, %10 ], [ 0, %15 ]
  %18 = icmp ugt i64 %5, %17
  br i1 %18, label %19, label %20

19:                                               ; preds = %16
  call void (ptr, i32, ptr, ...) @BUG_fl(ptr noundef @.str.122, i32 noundef 167, ptr noundef @.str.123) #15
  unreachable

20:                                               ; preds = %16
  %21 = load i64, ptr %4, align 8, !tbaa !103
  %22 = load ptr, ptr %3, align 8, !tbaa !98
  %23 = getelementptr inbounds nuw %struct.strbuf, ptr %22, i32 0, i32 1
  store i64 %21, ptr %23, align 8, !tbaa !97
  %24 = load ptr, ptr %3, align 8, !tbaa !98
  %25 = getelementptr inbounds nuw %struct.strbuf, ptr %24, i32 0, i32 2
  %26 = load ptr, ptr %25, align 8, !tbaa !57
  %27 = icmp ne ptr %26, @strbuf_slopbuf
  br i1 %27, label %28, label %34

28:                                               ; preds = %20
  %29 = load ptr, ptr %3, align 8, !tbaa !98
  %30 = getelementptr inbounds nuw %struct.strbuf, ptr %29, i32 0, i32 2
  %31 = load ptr, ptr %30, align 8, !tbaa !57
  %32 = load i64, ptr %4, align 8, !tbaa !103
  %33 = getelementptr inbounds nuw i8, ptr %31, i64 %32
  store i8 0, ptr %33, align 1, !tbaa !84
  br label %35

34:                                               ; preds = %20
  br label %35

35:                                               ; preds = %34, %28
  ret void
}

; Function Attrs: inlinehint nounwind uwtable
define internal i32 @const_error() #5 {
  ret i32 -1
}

; Function Attrs: inlinehint nounwind uwtable
define internal ptr @_(ptr noundef %0) #5 {
  %2 = alloca ptr, align 8
  %3 = alloca ptr, align 8
  store ptr %0, ptr %3, align 8, !tbaa !11
  %4 = load ptr, ptr %3, align 8, !tbaa !11
  %5 = load i8, ptr %4, align 1, !tbaa !84
  %6 = icmp ne i8 %5, 0
  br i1 %6, label %8, label %7

7:                                                ; preds = %1
  store ptr @.str.72, ptr %2, align 8
  br label %16

8:                                                ; preds = %1
  %9 = load i32, ptr @git_gettext_enabled, align 4, !tbaa !4
  %10 = icmp ne i32 %9, 0
  br i1 %10, label %13, label %11

11:                                               ; preds = %8
  %12 = load ptr, ptr %3, align 8, !tbaa !11
  store ptr %12, ptr %2, align 8
  br label %16

13:                                               ; preds = %8
  %14 = load ptr, ptr %3, align 8, !tbaa !11
  %15 = call ptr @dcgettext(ptr noundef null, ptr noundef %14, i32 noundef 5) #14
  store ptr %15, ptr %2, align 8
  br label %16

16:                                               ; preds = %13, %11, %7
  %17 = load ptr, ptr %2, align 8
  ret ptr %17
}

; Function Attrs: inlinehint nounwind uwtable
define internal zeroext i1 @skip_prefix(ptr noundef %0, ptr noundef %1, ptr noundef %2) #5 {
  %4 = alloca i1, align 1
  %5 = alloca ptr, align 8
  %6 = alloca ptr, align 8
  %7 = alloca ptr, align 8
  store ptr %0, ptr %5, align 8, !tbaa !11
  store ptr %1, ptr %6, align 8, !tbaa !11
  store ptr %2, ptr %7, align 8, !tbaa !8
  br label %8

8:                                                ; preds = %16, %3
  %9 = load ptr, ptr %6, align 8, !tbaa !11
  %10 = load i8, ptr %9, align 1, !tbaa !84
  %11 = icmp ne i8 %10, 0
  br i1 %11, label %15, label %12

12:                                               ; preds = %8
  %13 = load ptr, ptr %5, align 8, !tbaa !11
  %14 = load ptr, ptr %7, align 8, !tbaa !8
  store ptr %13, ptr %14, align 8, !tbaa !11
  store i1 true, ptr %4, align 1
  br label %27

15:                                               ; preds = %8
  br label %16

16:                                               ; preds = %15
  %17 = load ptr, ptr %5, align 8, !tbaa !11
  %18 = getelementptr inbounds nuw i8, ptr %17, i32 1
  store ptr %18, ptr %5, align 8, !tbaa !11
  %19 = load i8, ptr %17, align 1, !tbaa !84
  %20 = sext i8 %19 to i32
  %21 = load ptr, ptr %6, align 8, !tbaa !11
  %22 = getelementptr inbounds nuw i8, ptr %21, i32 1
  store ptr %22, ptr %6, align 8, !tbaa !11
  %23 = load i8, ptr %21, align 1, !tbaa !84
  %24 = sext i8 %23 to i32
  %25 = icmp eq i32 %20, %24
  br i1 %25, label %8, label %26, !llvm.loop !117

26:                                               ; preds = %16
  store i1 false, ptr %4, align 1
  br label %27

27:                                               ; preds = %26, %12
  %28 = load i1, ptr %4, align 1
  ret i1 %28
}

; Function Attrs: nounwind uwtable
define internal i32 @hg_patch_to_mail(ptr noundef %0, ptr noundef %1, i32 noundef %2) #0 {
  %4 = alloca i32, align 4
  %5 = alloca ptr, align 8
  %6 = alloca ptr, align 8
  %7 = alloca i32, align 4
  %8 = alloca %struct.strbuf, align 8
  %9 = alloca i32, align 4
  %10 = alloca ptr, align 8
  %11 = alloca i64, align 8
  %12 = alloca i64, align 8
  %13 = alloca i64, align 8
  %14 = alloca ptr, align 8
  %15 = alloca %struct.date_mode, align 8
  %16 = alloca i32, align 4
  store ptr %0, ptr %5, align 8, !tbaa !29
  store ptr %1, ptr %6, align 8, !tbaa !29
  store i32 %2, ptr %7, align 4, !tbaa !4
  call void @llvm.lifetime.start.p0(i64 24, ptr %8) #14
  call void @llvm.memcpy.p0.p0.i64(ptr align 8 %8, ptr align 8 @__const.hg_patch_to_mail.sb, i64 24, i1 false)
  call void @llvm.lifetime.start.p0(i64 4, ptr %9) #14
  store i32 0, ptr %9, align 4, !tbaa !4
  br label %17

17:                                               ; preds = %120, %118, %3
  %18 = load ptr, ptr %6, align 8, !tbaa !29
  %19 = call i32 @strbuf_getline_lf(ptr noundef %8, ptr noundef %18)
  %20 = icmp ne i32 %19, 0
  %21 = xor i1 %20, true
  br i1 %21, label %22, label %121

22:                                               ; preds = %17
  call void @llvm.lifetime.start.p0(i64 8, ptr %10) #14
  %23 = getelementptr inbounds nuw %struct.strbuf, ptr %8, i32 0, i32 2
  %24 = load ptr, ptr %23, align 8, !tbaa !57
  %25 = call zeroext i1 @skip_prefix(ptr noundef %24, ptr noundef @.str.174, ptr noundef %10)
  br i1 %25, label %26, label %30

26:                                               ; preds = %22
  %27 = load ptr, ptr %5, align 8, !tbaa !29
  %28 = load ptr, ptr %10, align 8, !tbaa !11
  %29 = call i32 (ptr, ptr, ...) @fprintf(ptr noundef %27, ptr noundef @.str.175, ptr noundef %28) #14
  br label %117

30:                                               ; preds = %22
  %31 = getelementptr inbounds nuw %struct.strbuf, ptr %8, i32 0, i32 2
  %32 = load ptr, ptr %31, align 8, !tbaa !57
  %33 = call zeroext i1 @skip_prefix(ptr noundef %32, ptr noundef @.str.176, ptr noundef %10)
  br i1 %33, label %34, label %105

34:                                               ; preds = %30
  call void @llvm.lifetime.start.p0(i64 8, ptr %11) #14
  call void @llvm.lifetime.start.p0(i64 8, ptr %12) #14
  call void @llvm.lifetime.start.p0(i64 8, ptr %13) #14
  call void @llvm.lifetime.start.p0(i64 8, ptr %14) #14
  %35 = call ptr @__errno_location() #18
  store i32 0, ptr %35, align 4, !tbaa !4
  %36 = load ptr, ptr %10, align 8, !tbaa !11
  %37 = call i64 @strtoumax(ptr noundef %36, ptr noundef %14, i32 noundef 10) #14
  store i64 %37, ptr %11, align 8, !tbaa !103
  %38 = call ptr @__errno_location() #18
  %39 = load i32, ptr %38, align 4, !tbaa !4
  %40 = icmp ne i32 %39, 0
  br i1 %40, label %41, label %45

41:                                               ; preds = %34
  %42 = call ptr @_(ptr noundef @.str.177)
  %43 = call i32 (ptr, ...) @error(ptr noundef %42)
  %44 = call i32 @const_error()
  store i32 %44, ptr %9, align 4, !tbaa !4
  store i32 4, ptr %16, align 4
  br label %102

45:                                               ; preds = %34
  %46 = load ptr, ptr %14, align 8, !tbaa !11
  %47 = call zeroext i1 @skip_prefix(ptr noundef %46, ptr noundef @.str.178, ptr noundef %10)
  br i1 %47, label %52, label %48

48:                                               ; preds = %45
  %49 = call ptr @_(ptr noundef @.str.179)
  %50 = call i32 (ptr, ...) @error(ptr noundef %49)
  %51 = call i32 @const_error()
  store i32 %51, ptr %9, align 4, !tbaa !4
  store i32 4, ptr %16, align 4
  br label %102

52:                                               ; preds = %45
  %53 = call ptr @__errno_location() #18
  store i32 0, ptr %53, align 4, !tbaa !4
  %54 = load ptr, ptr %10, align 8, !tbaa !11
  %55 = call i64 @strtol(ptr noundef %54, ptr noundef %14, i32 noundef 10) #14
  store i64 %55, ptr %12, align 8, !tbaa !103
  %56 = call ptr @__errno_location() #18
  %57 = load i32, ptr %56, align 4, !tbaa !4
  %58 = icmp ne i32 %57, 0
  br i1 %58, label %59, label %63

59:                                               ; preds = %52
  %60 = call ptr @_(ptr noundef @.str.180)
  %61 = call i32 (ptr, ...) @error(ptr noundef %60)
  %62 = call i32 @const_error()
  store i32 %62, ptr %9, align 4, !tbaa !4
  store i32 4, ptr %16, align 4
  br label %102

63:                                               ; preds = %52
  %64 = load ptr, ptr %14, align 8, !tbaa !11
  %65 = load i8, ptr %64, align 1, !tbaa !84
  %66 = icmp ne i8 %65, 0
  br i1 %66, label %67, label %71

67:                                               ; preds = %63
  %68 = call ptr @_(ptr noundef @.str.179)
  %69 = call i32 (ptr, ...) @error(ptr noundef %68)
  %70 = call i32 @const_error()
  store i32 %70, ptr %9, align 4, !tbaa !4
  store i32 4, ptr %16, align 4
  br label %102

71:                                               ; preds = %63
  %72 = load i64, ptr %12, align 8, !tbaa !103
  %73 = call i64 @llvm.abs.i64(i64 %72, i1 true)
  %74 = sdiv i64 %73, 3600
  %75 = mul nsw i64 %74, 100
  %76 = load i64, ptr %12, align 8, !tbaa !103
  %77 = call i64 @llvm.abs.i64(i64 %76, i1 true)
  %78 = srem i64 %77, 3600
  %79 = sdiv i64 %78, 60
  %80 = add nsw i64 %75, %79
  store i64 %80, ptr %13, align 8, !tbaa !103
  %81 = load i64, ptr %12, align 8, !tbaa !103
  %82 = icmp sgt i64 %81, 0
  br i1 %82, label %83, label %86

83:                                               ; preds = %71
  %84 = load i64, ptr %13, align 8, !tbaa !103
  %85 = sub nsw i64 0, %84
  store i64 %85, ptr %13, align 8, !tbaa !103
  br label %86

86:                                               ; preds = %83, %71
  %87 = load ptr, ptr %5, align 8, !tbaa !29
  %88 = load i64, ptr %11, align 8, !tbaa !103
  %89 = load i64, ptr %13, align 8, !tbaa !103
  %90 = trunc i64 %89 to i32
  %91 = call { i64, ptr } @date_mode_from_type(i32 noundef 6)
  %92 = getelementptr inbounds nuw { i64, ptr }, ptr %15, i32 0, i32 0
  %93 = extractvalue { i64, ptr } %91, 0
  store i64 %93, ptr %92, align 8
  %94 = getelementptr inbounds nuw { i64, ptr }, ptr %15, i32 0, i32 1
  %95 = extractvalue { i64, ptr } %91, 1
  store ptr %95, ptr %94, align 8
  %96 = getelementptr inbounds nuw { i64, ptr }, ptr %15, i32 0, i32 0
  %97 = load i64, ptr %96, align 8
  %98 = getelementptr inbounds nuw { i64, ptr }, ptr %15, i32 0, i32 1
  %99 = load ptr, ptr %98, align 8
  %100 = call ptr @show_date(i64 noundef %88, i32 noundef %90, i64 %97, ptr %99)
  %101 = call i32 (ptr, ptr, ...) @fprintf(ptr noundef %87, ptr noundef @.str.181, ptr noundef %100) #14
  store i32 0, ptr %16, align 4
  br label %102

102:                                              ; preds = %67, %59, %48, %41, %86
  call void @llvm.lifetime.end.p0(i64 8, ptr %14) #14
  call void @llvm.lifetime.end.p0(i64 8, ptr %13) #14
  call void @llvm.lifetime.end.p0(i64 8, ptr %12) #14
  call void @llvm.lifetime.end.p0(i64 8, ptr %11) #14
  %103 = load i32, ptr %16, align 4
  switch i32 %103, label %118 [
    i32 0, label %104
  ]

104:                                              ; preds = %102
  br label %116

105:                                              ; preds = %30
  %106 = getelementptr inbounds nuw %struct.strbuf, ptr %8, i32 0, i32 2
  %107 = load ptr, ptr %106, align 8, !tbaa !57
  %108 = call i32 @starts_with(ptr noundef %107, ptr noundef @.str.182)
  %109 = icmp ne i32 %108, 0
  br i1 %109, label %110, label %111

110:                                              ; preds = %105
  store i32 2, ptr %16, align 4
  br label %118, !llvm.loop !112

111:                                              ; preds = %105
  %112 = load ptr, ptr %5, align 8, !tbaa !29
  %113 = getelementptr inbounds nuw %struct.strbuf, ptr %8, i32 0, i32 2
  %114 = load ptr, ptr %113, align 8, !tbaa !57
  %115 = call i32 (ptr, ptr, ...) @fprintf(ptr noundef %112, ptr noundef @.str.172, ptr noundef %114) #14
  store i32 3, ptr %16, align 4
  br label %118

116:                                              ; preds = %104
  br label %117

117:                                              ; preds = %116, %26
  store i32 0, ptr %16, align 4
  br label %118

118:                                              ; preds = %117, %111, %110, %102
  call void @llvm.lifetime.end.p0(i64 8, ptr %10) #14
  %119 = load i32, ptr %16, align 4
  switch i32 %119, label %136 [
    i32 0, label %120
    i32 2, label %17
    i32 3, label %121
    i32 4, label %134
  ]

120:                                              ; preds = %118
  br label %17, !llvm.loop !112

121:                                              ; preds = %118, %17
  call void @strbuf_setlen(ptr noundef %8, i64 noundef 0)
  br label %122

122:                                              ; preds = %126, %121
  %123 = load ptr, ptr %6, align 8, !tbaa !29
  %124 = call i64 @strbuf_fread(ptr noundef %8, i64 noundef 8192, ptr noundef %123)
  %125 = icmp ugt i64 %124, 0
  br i1 %125, label %126, label %133

126:                                              ; preds = %122
  %127 = getelementptr inbounds nuw %struct.strbuf, ptr %8, i32 0, i32 2
  %128 = load ptr, ptr %127, align 8, !tbaa !57
  %129 = getelementptr inbounds nuw %struct.strbuf, ptr %8, i32 0, i32 1
  %130 = load i64, ptr %129, align 8, !tbaa !97
  %131 = load ptr, ptr %5, align 8, !tbaa !29
  %132 = call i64 @fwrite(ptr noundef %128, i64 noundef 1, i64 noundef %130, ptr noundef %131)
  call void @strbuf_setlen(ptr noundef %8, i64 noundef 0)
  br label %122, !llvm.loop !113

133:                                              ; preds = %122
  br label %134

134:                                              ; preds = %133, %118
  call void @strbuf_release(ptr noundef %8)
  %135 = load i32, ptr %9, align 4, !tbaa !4
  store i32 %135, ptr %4, align 4
  store i32 1, ptr %16, align 4
  br label %136

136:                                              ; preds = %134, %118
  call void @llvm.lifetime.end.p0(i64 4, ptr %9) #14
  call void @llvm.lifetime.end.p0(i64 24, ptr %8) #14
  %137 = load i32, ptr %4, align 4
  ret i32 %137
}