; Function Attrs: nounwind uwtable
define internal range(i32 -1, 1) i32 @hg_patch_to_mail(ptr noundef captures(none) %0, ptr noundef %1, i32 %2) #0 {
  %4 = alloca %struct.strbuf, align 8
  %5 = alloca ptr, align 8
  call void @llvm.lifetime.start.p0(i64 24, ptr nonnull %4) #21
  call void @llvm.memcpy.p0.p0.i64(ptr noundef nonnull align 8 dereferenceable(24) %4, ptr noundef nonnull align 8 dereferenceable(24) @__const.show_patch.sb, i64 24, i1 false)
  %6 = call i32 @strbuf_getline_lf(ptr noundef nonnull %4, ptr noundef %1) #21
  %.not79 = icmp eq i32 %6, 0
  br i1 %.not79, label %.lr.ph, label %.loopexit71

.lr.ph:                                           ; preds = %3
  %7 = getelementptr inbounds nuw i8, ptr %4, i64 16
  br label %8

8:                                                ; preds = %.lr.ph, %68
  %9 = load ptr, ptr %7, align 8, !tbaa !51
  %scevgep = getelementptr i8, ptr %9, i64 7
  br label %10

10:                                               ; preds = %11, %8
  %.07.i = phi ptr [ %9, %8 ], [ %13, %11 ]
  %.06.i.idx = phi i64 [ 0, %8 ], [ %.06.i.add, %11 ]
  %exitcond = icmp eq i64 %.06.i.idx, 7
  br i1 %exitcond, label %16, label %11

11:                                               ; preds = %10
  %.06.i.ptr = getelementptr inbounds nuw i8, ptr @.str.174, i64 %.06.i.idx
  %12 = load i8, ptr %.06.i.ptr, align 1, !tbaa !47
  %13 = getelementptr inbounds nuw i8, ptr %.07.i, i64 1
  %14 = load i8, ptr %.07.i, align 1, !tbaa !47
  %.06.i.add = add nuw nsw i64 %.06.i.idx, 1
  %15 = icmp eq i8 %14, %12
  br i1 %15, label %10, label %skip_prefix.exit, !llvm.loop !133

16:                                               ; preds = %10
  %17 = call i32 (ptr, ptr, ...) @fprintf(ptr noundef %0, ptr noundef nonnull @.str.175, ptr noundef %scevgep) #21
  br label %68

skip_prefix.exit:                                 ; preds = %11, %18
  %.07.i25 = phi ptr [ %20, %18 ], [ %9, %11 ]
  %.06.i26.idx = phi i64 [ %.06.i26.add, %18 ], [ 0, %11 ]
  %exitcond86 = icmp eq i64 %.06.i26.idx, 7
  br i1 %exitcond86, label %23, label %18

18:                                               ; preds = %skip_prefix.exit
  %.06.i26.ptr = getelementptr inbounds nuw i8, ptr @.str.176, i64 %.06.i26.idx
  %19 = load i8, ptr %.06.i26.ptr, align 1, !tbaa !47
  %20 = getelementptr inbounds nuw i8, ptr %.07.i25, i64 1
  %21 = load i8, ptr %.07.i25, align 1, !tbaa !47
  %.06.i26.add = add nuw nsw i64 %.06.i26.idx, 1
  %22 = icmp eq i8 %21, %19
  br i1 %22, label %skip_prefix.exit, label %skip_prefix.exit28, !llvm.loop !133

23:                                               ; preds = %skip_prefix.exit
  call void @llvm.lifetime.start.p0(i64 8, ptr nonnull %5) #21
  %24 = tail call ptr @__errno_location() #24
  store i32 0, ptr %24, align 4, !tbaa !4
  %25 = call i64 @strtoumax(ptr noundef %scevgep, ptr noundef nonnull %5, i32 noundef 10) #21
  %26 = load i32, ptr %24, align 4, !tbaa !4
  %.not20 = icmp eq i32 %26, 0
  br i1 %.not20, label %29, label %27

27:                                               ; preds = %23
  %28 = load i32, ptr @git_gettext_enabled, align 4, !tbaa !4
  %.not4.i = icmp eq i32 %28, 0
  br i1 %.not4.i, label %.thread67, label %.thread67.sink.split

29:                                               ; preds = %23
  %30 = load ptr, ptr %5, align 8, !tbaa !44
  %scevgep87 = getelementptr i8, ptr %30, i64 1
  br label %31

31:                                               ; preds = %32, %29
  %.07.i29 = phi ptr [ %30, %29 ], [ %34, %32 ]
  %.06.i30.idx = phi i64 [ 0, %29 ], [ %.06.i30.add, %32 ]
  %exitcond88 = icmp eq i64 %.06.i30.idx, 1
  br i1 %exitcond88, label %38, label %32

32:                                               ; preds = %31
  %.06.i30.ptr = getelementptr inbounds nuw i8, ptr @.str.178, i64 %.06.i30.idx
  %33 = load i8, ptr %.06.i30.ptr, align 1, !tbaa !47
  %34 = getelementptr inbounds nuw i8, ptr %.07.i29, i64 1
  %35 = load i8, ptr %.07.i29, align 1, !tbaa !47
  %.06.i30.add = add nuw nsw i64 %.06.i30.idx, 1
  %36 = icmp eq i8 %35, %33
  br i1 %36, label %31, label %skip_prefix.exit32, !llvm.loop !133

skip_prefix.exit32:                               ; preds = %32
  %37 = load i32, ptr @git_gettext_enabled, align 4, !tbaa !4
  %.not4.i33 = icmp eq i32 %37, 0
  br i1 %.not4.i33, label %.thread67, label %.thread67.sink.split

38:                                               ; preds = %31
  store i32 0, ptr %24, align 4, !tbaa !4
  %39 = call i64 @strtol(ptr noundef %scevgep87, ptr noundef nonnull %5, i32 noundef 10) #21
  %40 = load i32, ptr %24, align 4, !tbaa !4
  %.not21 = icmp eq i32 %40, 0
  br i1 %.not21, label %43, label %41

41:                                               ; preds = %38
  %42 = load i32, ptr @git_gettext_enabled, align 4, !tbaa !4
  %.not4.i36 = icmp eq i32 %42, 0
  br i1 %.not4.i36, label %.thread67, label %.thread67.sink.split

43:                                               ; preds = %38
  %44 = load ptr, ptr %5, align 8, !tbaa !44
  %45 = load i8, ptr %44, align 1, !tbaa !47
  %.not22 = icmp eq i8 %45, 0
  br i1 %.not22, label %50, label %46

46:                                               ; preds = %43
  %47 = load i32, ptr @git_gettext_enabled, align 4, !tbaa !4
  %.not4.i39 = icmp eq i32 %47, 0
  br i1 %.not4.i39, label %.thread67, label %.thread67.sink.split

.thread67.sink.split:                             ; preds = %46, %41, %skip_prefix.exit32, %27
  %.str.179.sink = phi ptr [ @.str.177, %27 ], [ @.str.179, %skip_prefix.exit32 ], [ @.str.180, %41 ], [ @.str.179, %46 ]
  %48 = call ptr @dcgettext(ptr noundef null, ptr noundef nonnull %.str.179.sink, i32 noundef 5) #21
  br label %.thread67

.thread67:                                        ; preds = %.thread67.sink.split, %46, %41, %skip_prefix.exit32, %27
  %.0.i34.sink = phi ptr [ @.str.177, %27 ], [ @.str.179, %skip_prefix.exit32 ], [ @.str.180, %41 ], [ @.str.179, %46 ], [ %48, %.thread67.sink.split ]
  %49 = call i32 (ptr, ...) @error(ptr noundef %.0.i34.sink) #21
  call void @llvm.lifetime.end.p0(i64 8, ptr nonnull %5) #21
  br label %.loopexit

50:                                               ; preds = %43
  %51 = call i64 @llvm.abs.i64(i64 %39, i1 true)
  %52 = udiv i64 %51, 3600
  %53 = mul nuw nsw i64 %52, 100
  %54 = urem i64 %51, 3600
  %.lhs.trunc = trunc nuw nsw i64 %54 to i16
  %55 = udiv i16 %.lhs.trunc, 60
  %.zext = zext nneg i16 %55 to i64
  %56 = add nuw nsw i64 %53, %.zext
  %57 = icmp sgt i64 %39, 0
  %58 = sub nsw i64 0, %56
  %spec.select = select i1 %57, i64 %58, i64 %56
  %59 = trunc i64 %spec.select to i32
  %60 = call { i64, ptr } @date_mode_from_type(i32 noundef 6) #21
  %61 = extractvalue { i64, ptr } %60, 0
  %62 = extractvalue { i64, ptr } %60, 1
  %63 = call ptr @show_date(i64 noundef %25, i32 noundef %59, i64 %61, ptr %62) #21
  %64 = call i32 (ptr, ptr, ...) @fprintf(ptr noundef %0, ptr noundef nonnull @.str.181, ptr noundef %63) #21
  call void @llvm.lifetime.end.p0(i64 8, ptr nonnull %5) #21
  br label %68

skip_prefix.exit28:                               ; preds = %18
  %65 = call i32 @starts_with(ptr noundef %9, ptr noundef nonnull @.str.182) #21
  %.not19 = icmp eq i32 %65, 0
  br i1 %.not19, label %.thread63, label %68, !llvm.loop !172

.thread63:                                        ; preds = %skip_prefix.exit28
  %66 = load ptr, ptr %7, align 8, !tbaa !51
  %67 = call i32 (ptr, ptr, ...) @fprintf(ptr noundef %0, ptr noundef nonnull @.str.172, ptr noundef %66) #21
  br label %.loopexit71

68:                                               ; preds = %50, %16, %skip_prefix.exit28
  %69 = call i32 @strbuf_getline_lf(ptr noundef nonnull %4, ptr noundef %1) #21
  %.not = icmp eq i32 %69, 0
  br i1 %.not, label %8, label %.loopexit71

.loopexit71:                                      ; preds = %68, %3, %.thread63
  %70 = getelementptr inbounds nuw i8, ptr %4, i64 8
  store i64 0, ptr %70, align 8, !tbaa !53
  %71 = getelementptr inbounds nuw i8, ptr %4, i64 16
  %72 = load ptr, ptr %71, align 8, !tbaa !51
  %.not9.i = icmp eq ptr %72, @strbuf_slopbuf
  br i1 %.not9.i, label %strbuf_setlen.exit, label %73

73:                                               ; preds = %.loopexit71
  store i8 0, ptr %72, align 1, !tbaa !47
  br label %strbuf_setlen.exit

strbuf_setlen.exit:                               ; preds = %.loopexit71, %73
  %74 = call i64 @strbuf_fread(ptr noundef nonnull %4, i64 noundef 8192, ptr noundef %1) #21
  %.not2380 = icmp eq i64 %74, 0
  br i1 %.not2380, label %.loopexit, label %.lr.ph81

.lr.ph81:                                         ; preds = %strbuf_setlen.exit, %strbuf_setlen.exit43
  %75 = load ptr, ptr %71, align 8, !tbaa !51
  %76 = load i64, ptr %70, align 8, !tbaa !53
  %77 = call i64 @fwrite(ptr noundef %75, i64 noundef 1, i64 noundef %76, ptr noundef %0)
  store i64 0, ptr %70, align 8, !tbaa !53
  %78 = load ptr, ptr %71, align 8, !tbaa !51
  %.not9.i42 = icmp eq ptr %78, @strbuf_slopbuf
  br i1 %.not9.i42, label %strbuf_setlen.exit43, label %79

79:                                               ; preds = %.lr.ph81
  store i8 0, ptr %78, align 1, !tbaa !47
  br label %strbuf_setlen.exit43

strbuf_setlen.exit43:                             ; preds = %.lr.ph81, %79
  %80 = call i64 @strbuf_fread(ptr noundef nonnull %4, i64 noundef 8192, ptr noundef %1) #21
  %.not23 = icmp eq i64 %80, 0
  br i1 %.not23, label %.loopexit, label %.lr.ph81, !llvm.loop !173

.loopexit:                                        ; preds = %strbuf_setlen.exit43, %strbuf_setlen.exit, %.thread67
  %.5 = phi i32 [ -1, %.thread67 ], [ 0, %strbuf_setlen.exit ], [ 0, %strbuf_setlen.exit43 ]
  call void @strbuf_release(ptr noundef nonnull %4) #21
  call void @llvm.lifetime.end.p0(i64 24, ptr nonnull %4) #21
  ret i32 %.5
}